; Function Attrs: mustprogress uwtable
define dso_local void @_ZN9CGContext8read_varEPK8Variable(ptr noundef nonnull align 8 dereferenceable(216) %0, ptr noundef %1) local_unnamed_addr #4 align 2 {
  %3 = load ptr, ptr %1, align 8
  %4 = getelementptr inbounds nuw i8, ptr %3, i64 64
  %5 = load ptr, ptr %4, align 8
  %6 = tail call noundef ptr %5(ptr noundef nonnull align 8 dereferenceable(200) %1)
  %7 = getelementptr inbounds nuw i8, ptr %0, i64 56
  %8 = load ptr, ptr %7, align 8
  %.not.i = icmp eq ptr %8, null
  br i1 %.not.i, label %_ZNK9CGContext14is_nonreadableEPK8Variable.exit, label %9

9:                                                ; preds = %2
  %10 = load ptr, ptr %8, align 8
  %11 = getelementptr inbounds nuw i8, ptr %10, i64 8
  %12 = load ptr, ptr %11, align 8
  %13 = load ptr, ptr %10, align 8
  %.not11.i = icmp eq ptr %12, %13
  br i1 %.not11.i, label %_ZNK9CGContext14is_nonreadableEPK8Variable.exit, label %.lr.ph.preheader.i

.lr.ph.preheader.i:                               ; preds = %9
  %14 = ptrtoint ptr %12 to i64
  %15 = ptrtoint ptr %13 to i64
  %16 = sub i64 %14, %15
  %17 = ashr exact i64 %16, 3
  %umax.i = tail call i64 @llvm.umax.i64(i64 %17, i64 1)
  br label %.lr.ph.i

.lr.ph.i:                                         ; preds = %.lr.ph.i, %.lr.ph.preheader.i
  %.08.i = phi i64 [ 0, %.lr.ph.preheader.i ], [ %24, %.lr.ph.i ]
  %18 = load ptr, ptr %7, align 8
  %19 = load ptr, ptr %18, align 8
  %20 = load ptr, ptr %19, align 8
  %21 = getelementptr inbounds ptr, ptr %20, i64 %.08.i
  %22 = load ptr, ptr %21, align 8
  %23 = tail call noundef zeroext i1 @_ZNK8Variable5matchEPKS_(ptr noundef nonnull align 8 dereferenceable(200) %22, ptr noundef %6)
  %24 = add nuw i64 %.08.i, 1
  %exitcond.not.i = icmp eq i64 %24, %umax.i
  %or.cond = select i1 %23, i1 true, i1 %exitcond.not.i
  br i1 %or.cond, label %_ZNK9CGContext14is_nonreadableEPK8Variable.exit, label %.lr.ph.i, !llvm.loop !9

_ZNK9CGContext14is_nonreadableEPK8Variable.exit:  ; preds = %.lr.ph.i, %2, %9
  %25 = getelementptr inbounds nuw i8, ptr %0, i64 128
  %26 = load ptr, ptr %25, align 8
  %.not = icmp eq ptr %26, null
  br i1 %.not, label %28, label %27

27:                                               ; preds = %_ZNK9CGContext14is_nonreadableEPK8Variable.exit
  tail call void @_ZN6Effect8read_varEPK8Variable(ptr noundef nonnull align 8 dereferenceable(74) %26, ptr noundef %6)
  br label %28

28:                                               ; preds = %27, %_ZNK9CGContext14is_nonreadableEPK8Variable.exit
  %29 = getelementptr inbounds nuw i8, ptr %0, i64 136
  tail call void @_ZN6Effect8read_varEPK8Variable(ptr noundef nonnull align 8 dereferenceable(74) %29, ptr noundef %6)
  ret void
}